; Function Attrs: null_pointer_is_valid sspstrong uwtable
define internal void @dissect_pcep_of_obj(ptr noundef %0, ptr noundef %1, ptr noundef %2, i32 noundef %3, i32 noundef %4, i32 %5, i32 %6) #0 {
  %8 = icmp slt i32 %4, 8
  br i1 %8, label %9, label %11

9:                                                ; preds = %7
  %10 = tail call ptr (ptr, ptr, ptr, ptr, i32, i32, ptr, ...) @proto_tree_add_expert_format(ptr noundef %0, ptr noundef %1, ptr noundef nonnull @ei_pcep_subobject_bad_length, ptr noundef %2, i32 noundef %3, i32 noundef %4, ptr noundef nonnull @.str.1393, i32 noundef %4, i32 noundef 8)
  br label %17

11:                                               ; preds = %7
  %12 = load i32, ptr @hf_pcep_obj_of_code, align 4
  %13 = tail call ptr @proto_tree_add_item(ptr noundef %0, i32 noundef %12, ptr noundef %2, i32 noundef %3, i32 noundef 2, i32 noundef 0)
  %14 = add i32 %3, 4
  %15 = add nsw i32 %4, -8
  %16 = load i32, ptr @ett_pcep_obj_open, align 4
  tail call fastcc void @dissect_pcep_tlvs_with_scope(ptr noundef %0, ptr noundef %2, i32 noundef %14, i32 noundef range(i32 0, 2147483640) %15, i32 noundef %16, i16 noundef zeroext 0)
  br label %17

17:                                               ; preds = %11, %9
  ret void
}